target datalayout = "e-m:e-p270:32:32-p271:32:32-p272:64:64-i64:64-i128:128-f80:128-n8:16:32:64-S128"
target triple = "x86_64-pc-linux-gnu"

%struct.UCharIterator = type { ptr, i32, i32, i32, i32, i32, ptr, ptr, ptr, ptr, ptr, ptr, ptr, ptr, ptr, ptr }

; Function Attrs: inlinehint mustprogress uwtable
define linkonce_odr noundef zeroext i16 @_ZNK6icu_7711Replaceable6charAtEi(ptr noundef nonnull align 8 dereferenceable(8) %0, i32 noundef %1) #4 comdat align 2 {
  %3 = alloca ptr, align 8
  %4 = alloca i32, align 4
  store ptr %0, ptr %3, align 8, !tbaa !25
  store i32 %1, ptr %4, align 4, !tbaa !10
  %5 = load ptr, ptr %3, align 8
  %6 = load i32, ptr %4, align 4, !tbaa !10
  %7 = load ptr, ptr %5, align 8, !tbaa !27
  %8 = getelementptr inbounds ptr, ptr %7, i64 9
  %9 = load ptr, ptr %8, align 8
  %10 = call noundef zeroext i16 %9(ptr noundef nonnull align 8 dereferenceable(8) %5, i32 noundef %6)
  ret i16 %10
}

; Function Attrs: mustprogress uwtable
define internal noundef i32 @_ZL23replaceableIteratorNextP13UCharIterator(ptr noundef %0) #0 {
  %2 = alloca i32, align 4
  %3 = alloca ptr, align 8
  store ptr %0, ptr %3, align 8, !tbaa !3
  %4 = load ptr, ptr %3, align 8, !tbaa !3
  %5 = getelementptr inbounds nuw %struct.UCharIterator, ptr %4, i32 0, i32 3
  %6 = load i32, ptr %5, align 8, !tbaa !40
  %7 = load ptr, ptr %3, align 8, !tbaa !3
  %8 = getelementptr inbounds nuw %struct.UCharIterator, ptr %7, i32 0, i32 4
  %9 = load i32, ptr %8, align 4, !tbaa !17
  %10 = icmp slt i32 %6, %9
  br i1 %10, label %11, label %21

11:                                               ; preds = %1
  %12 = load ptr, ptr %3, align 8, !tbaa !3
  %13 = getelementptr inbounds nuw %struct.UCharIterator, ptr %12, i32 0, i32 0
  %14 = load ptr, ptr %13, align 8, !tbaa !14
  %15 = load ptr, ptr %3, align 8, !tbaa !3
  %16 = getelementptr inbounds nuw %struct.UCharIterator, ptr %15, i32 0, i32 3
  %17 = load i32, ptr %16, align 8, !tbaa !40
  %18 = add nsw i32 %17, 1
  store i32 %18, ptr %16, align 8, !tbaa !40
  %19 = call noundef zeroext i16 @_ZNK6icu_7711Replaceable6charAtEi(ptr noundef nonnull align 8 dereferenceable(8) %14, i32 noundef %17)
  %20 = zext i16 %19 to i32
  store i32 %20, ptr %2, align 4
  br label %22

21:                                               ; preds = %1
  store i32 -1, ptr %2, align 4
  br label %22

22:                                               ; preds = %21, %11
  %23 = load i32, ptr %2, align 4
  ret i32 %23
}